target datalayout = "e-m:e-p270:32:32-p271:32:32-p272:64:64-i64:64-i128:128-f80:128-n8:16:32:64-S128"
target triple = "x86_64-pc-linux-gnu"

@stderr = external global ptr, align 8
@.str.4 = private unnamed_addr constant [5 x i8] c".res\00", align 1
@.str.7 = private unnamed_addr constant [64 x i8] c"icupkg/makeTargetName(%s) target item name length %ld too long\0A\00", align 1
@.str.13 = private unnamed_addr constant [90 x i8] c"icupkg/ures_enumDependencies(%s res=%08x) alias string contains non-invariant characters\0A\00", align 1
@.str.14 = private unnamed_addr constant [66 x i8] c"icupkg/ures_enumDependencies(%s res=%08x) %%ALIAS contains a '/'\0A\00", align 1
@.str.15 = private unnamed_addr constant [79 x i8] c"icupkg/ures_enumDependencies(%s res=%08x) alias locale ID length %ld too long\0A\00", align 1
@.str.16 = private unnamed_addr constant [1 x i8] zeroinitializer, align 1

; Function Attrs: inlinehint mustprogress nounwind uwtable
define internal noundef signext i8 @_ZL9U_SUCCESS10UErrorCode(i32 noundef %0) #3 {
  %2 = alloca i32, align 4
  store i32 %0, ptr %2, align 4, !tbaa !11
  %3 = load i32, ptr %2, align 4, !tbaa !11
  %4 = icmp sle i32 %3, 0
  %5 = zext i1 %4 to i8
  ret i8 %5
}

; Function Attrs: mustprogress nounwind uwtable
define internal void @_ZN6icu_77L14makeTargetNameEPKcS1_iS1_PciP10UErrorCode(ptr noundef %0, ptr noundef %1, i32 noundef %2, ptr noundef %3, ptr noundef %4, i32 noundef %5, ptr noundef %6) #4 {
  %8 = alloca ptr, align 8
  %9 = alloca ptr, align 8
  %10 = alloca i32, align 4
  %11 = alloca ptr, align 8
  %12 = alloca ptr, align 8
  %13 = alloca i32, align 4
  %14 = alloca ptr, align 8
  %15 = alloca ptr, align 8
  %16 = alloca i32, align 4
  %17 = alloca i32, align 4
  %18 = alloca i32, align 4
  %19 = alloca i32, align 4
  store ptr %0, ptr %8, align 8, !tbaa !31
  store ptr %1, ptr %9, align 8, !tbaa !31
  store i32 %2, ptr %10, align 4, !tbaa !18
  store ptr %3, ptr %11, align 8, !tbaa !31
  store ptr %4, ptr %12, align 8, !tbaa !31
  store i32 %5, ptr %13, align 4, !tbaa !18
  store ptr %6, ptr %14, align 8, !tbaa !10
  call void @llvm.lifetime.start.p0(i64 8, ptr %15) #11
  call void @llvm.lifetime.start.p0(i64 4, ptr %16) #11
  call void @llvm.lifetime.start.p0(i64 4, ptr %17) #11
  call void @llvm.lifetime.start.p0(i64 4, ptr %18) #11
  %20 = load ptr, ptr %8, align 8, !tbaa !31
  %21 = call noundef ptr @strrchr(ptr noundef %20, i32 noundef 47) #13
  store ptr %21, ptr %15, align 8, !tbaa !31
  %22 = load ptr, ptr %15, align 8, !tbaa !31
  %23 = icmp ne ptr %22, null
  br i1 %23, label %24, label %27

24:                                               ; preds = %7
  %25 = load ptr, ptr %15, align 8, !tbaa !31
  %26 = getelementptr inbounds nuw i8, ptr %25, i32 1
  store ptr %26, ptr %15, align 8, !tbaa !31
  br label %29

27:                                               ; preds = %7
  %28 = load ptr, ptr %8, align 8, !tbaa !31
  store ptr %28, ptr %15, align 8, !tbaa !31
  br label %29

29:                                               ; preds = %27, %24
  %30 = load ptr, ptr %15, align 8, !tbaa !31
  %31 = load ptr, ptr %8, align 8, !tbaa !31
  %32 = ptrtoint ptr %30 to i64
  %33 = ptrtoint ptr %31 to i64
  %34 = sub i64 %32, %33
  %35 = trunc i64 %34 to i32
  store i32 %35, ptr %16, align 4, !tbaa !18
  %36 = load i32, ptr %10, align 4, !tbaa !18
  %37 = icmp slt i32 %36, 0
  br i1 %37, label %38, label %42

38:                                               ; preds = %29
  %39 = load ptr, ptr %9, align 8, !tbaa !31
  %40 = call i64 @strlen(ptr noundef %39) #13
  %41 = trunc i64 %40 to i32
  store i32 %41, ptr %10, align 4, !tbaa !18
  br label %42

42:                                               ; preds = %38, %29
  %43 = load ptr, ptr %11, align 8, !tbaa !31
  %44 = call i64 @strlen(ptr noundef %43) #13
  %45 = trunc i64 %44 to i32
  store i32 %45, ptr %17, align 4, !tbaa !18
  %46 = load i32, ptr %16, align 4, !tbaa !18
  %47 = load i32, ptr %10, align 4, !tbaa !18
  %48 = add nsw i32 %46, %47
  %49 = load i32, ptr %17, align 4, !tbaa !18
  %50 = add nsw i32 %48, %49
  store i32 %50, ptr %18, align 4, !tbaa !18
  %51 = load i32, ptr %18, align 4, !tbaa !18
  %52 = load i32, ptr %13, align 4, !tbaa !18
  %53 = icmp sge i32 %51, %52
  br i1 %53, label %54, label %61

54:                                               ; preds = %42
  %55 = load ptr, ptr @stderr, align 8, !tbaa !26
  %56 = load ptr, ptr %8, align 8, !tbaa !31
  %57 = load i32, ptr %18, align 4, !tbaa !18
  %58 = sext i32 %57 to i64
  %59 = call i32 (ptr, ptr, ...) @fprintf(ptr noundef %55, ptr noundef @.str.7, ptr noundef %56, i64 noundef %58) #11
  %60 = load ptr, ptr %14, align 8, !tbaa !10
  store i32 15, ptr %60, align 4, !tbaa !11
  store i32 1, ptr %19, align 4
  br label %84

61:                                               ; preds = %42
  %62 = load ptr, ptr %12, align 8, !tbaa !31
  %63 = load ptr, ptr %8, align 8, !tbaa !31
  %64 = load i32, ptr %16, align 4, !tbaa !18
  %65 = sext i32 %64 to i64
  call void @llvm.memcpy.p0.p0.i64(ptr align 1 %62, ptr align 1 %63, i64 %65, i1 false)
  %66 = load ptr, ptr %12, align 8, !tbaa !31
  %67 = load i32, ptr %16, align 4, !tbaa !18
  %68 = sext i32 %67 to i64
  %69 = getelementptr inbounds i8, ptr %66, i64 %68
  %70 = load ptr, ptr %9, align 8, !tbaa !31
  %71 = load i32, ptr %10, align 4, !tbaa !18
  %72 = sext i32 %71 to i64
  call void @llvm.memcpy.p0.p0.i64(ptr align 1 %69, ptr align 1 %70, i64 %72, i1 false)
  %73 = load ptr, ptr %12, align 8, !tbaa !31
  %74 = load i32, ptr %16, align 4, !tbaa !18
  %75 = sext i32 %74 to i64
  %76 = getelementptr inbounds i8, ptr %73, i64 %75
  %77 = load i32, ptr %10, align 4, !tbaa !18
  %78 = sext i32 %77 to i64
  %79 = getelementptr inbounds i8, ptr %76, i64 %78
  %80 = load ptr, ptr %11, align 8, !tbaa !31
  %81 = load i32, ptr %17, align 4, !tbaa !18
  %82 = add nsw i32 %81, 1
  %83 = sext i32 %82 to i64
  call void @llvm.memcpy.p0.p0.i64(ptr align 1 %79, ptr align 1 %80, i64 %83, i1 false)
  store i32 0, ptr %19, align 4
  br label %84

84:                                               ; preds = %61, %54
  call void @llvm.lifetime.end.p0(i64 4, ptr %18) #11
  call void @llvm.lifetime.end.p0(i64 4, ptr %17) #11
  call void @llvm.lifetime.end.p0(i64 4, ptr %16) #11
  call void @llvm.lifetime.end.p0(i64 8, ptr %15) #11
  %85 = load i32, ptr %19, align 4
  switch i32 %85, label %87 [
    i32 0, label %86
    i32 1, label %86
  ]

86:                                               ; preds = %84, %84
  ret void

87:                                               ; preds = %84
  unreachable
}

; Function Attrs: mustprogress uwtable
define internal void @_ZN6icu_77L13checkIDSuffixEPKcS1_iS1_PFvPvS1_S1_ES2_P10UErrorCode(ptr noundef %0, ptr noundef %1, i32 noundef %2, ptr noundef %3, ptr noundef %4, ptr noundef %5, ptr noundef %6) #0 {
  %8 = alloca ptr, align 8
  %9 = alloca ptr, align 8
  %10 = alloca i32, align 4
  %11 = alloca ptr, align 8
  %12 = alloca ptr, align 8
  %13 = alloca ptr, align 8
  %14 = alloca ptr, align 8
  %15 = alloca [200 x i8], align 16
  store ptr %0, ptr %8, align 8, !tbaa !31
  store ptr %1, ptr %9, align 8, !tbaa !31
  store i32 %2, ptr %10, align 4, !tbaa !18
  store ptr %3, ptr %11, align 8, !tbaa !31
  store ptr %4, ptr %12, align 8, !tbaa !10
  store ptr %5, ptr %13, align 8, !tbaa !10
  store ptr %6, ptr %14, align 8, !tbaa !10
  call void @llvm.lifetime.start.p0(i64 200, ptr %15) #11
  %16 = load ptr, ptr %8, align 8, !tbaa !31
  %17 = load ptr, ptr %9, align 8, !tbaa !31
  %18 = load i32, ptr %10, align 4, !tbaa !18
  %19 = load ptr, ptr %11, align 8, !tbaa !31
  %20 = getelementptr inbounds [200 x i8], ptr %15, i64 0, i64 0
  %21 = load ptr, ptr %14, align 8, !tbaa !10
  call void @_ZN6icu_77L14makeTargetNameEPKcS1_iS1_PciP10UErrorCode(ptr noundef %16, ptr noundef %17, i32 noundef %18, ptr noundef %19, ptr noundef %20, i32 noundef 200, ptr noundef %21)
  %22 = load ptr, ptr %14, align 8, !tbaa !10
  %23 = load i32, ptr %22, align 4, !tbaa !11
  %24 = call noundef signext i8 @_ZL9U_SUCCESS10UErrorCode(i32 noundef %23)
  %25 = icmp ne i8 %24, 0
  br i1 %25, label %26, label %31

26:                                               ; preds = %7
  %27 = load ptr, ptr %12, align 8, !tbaa !10
  %28 = load ptr, ptr %13, align 8, !tbaa !10
  %29 = load ptr, ptr %8, align 8, !tbaa !31
  %30 = getelementptr inbounds [200 x i8], ptr %15, i64 0, i64 0
  call void %27(ptr noundef %28, ptr noundef %29, ptr noundef %30)
  br label %31

31:                                               ; preds = %26, %7
  call void @llvm.lifetime.end.p0(i64 200, ptr %15) #11
  ret void
}

; Function Attrs: mustprogress uwtable
define internal void @_ZN6icu_77L10checkAliasEPKcjPKDsiaPFvPvS1_S1_ES4_P10UErrorCode(ptr noundef %0, i32 noundef %1, ptr noundef %2, i32 noundef %3, i8 noundef signext %4, ptr noundef %5, ptr noundef %6, ptr noundef %7) #0 {
  %9 = alloca ptr, align 8
  %10 = alloca i32, align 4
  %11 = alloca ptr, align 8
  %12 = alloca i32, align 4
  %13 = alloca i8, align 1
  %14 = alloca ptr, align 8
  %15 = alloca ptr, align 8
  %16 = alloca ptr, align 8
  %17 = alloca i32, align 4
  %18 = alloca i32, align 4
  %19 = alloca [48 x i8], align 16
  store ptr %0, ptr %9, align 8, !tbaa !31
  store i32 %1, ptr %10, align 4, !tbaa !18
  store ptr %2, ptr %11, align 8, !tbaa !68
  store i32 %3, ptr %12, align 4, !tbaa !18
  store i8 %4, ptr %13, align 1, !tbaa !38
  store ptr %5, ptr %14, align 8, !tbaa !10
  store ptr %6, ptr %15, align 8, !tbaa !10
  store ptr %7, ptr %16, align 8, !tbaa !10
  call void @llvm.lifetime.start.p0(i64 4, ptr %17) #11
  %20 = load ptr, ptr %11, align 8, !tbaa !68
  %21 = load i32, ptr %12, align 4, !tbaa !18
  %22 = call signext i8 @uprv_isInvariantUString_77(ptr noundef %20, i32 noundef %21)
  %23 = icmp ne i8 %22, 0
  br i1 %23, label %30, label %24

24:                                               ; preds = %8
  %25 = load ptr, ptr @stderr, align 8, !tbaa !26
  %26 = load ptr, ptr %9, align 8, !tbaa !31
  %27 = load i32, ptr %10, align 4, !tbaa !18
  %28 = call i32 (ptr, ptr, ...) @fprintf(ptr noundef %25, ptr noundef @.str.13, ptr noundef %26, i32 noundef %27) #11
  %29 = load ptr, ptr %16, align 8, !tbaa !10
  store i32 10, ptr %29, align 4, !tbaa !11
  store i32 1, ptr %18, align 4
  br label %97

30:                                               ; preds = %8
  store i32 0, ptr %17, align 4, !tbaa !18
  br label %31

31:                                               ; preds = %46, %30
  %32 = load i32, ptr %17, align 4, !tbaa !18
  %33 = load i32, ptr %12, align 4, !tbaa !18
  %34 = icmp slt i32 %32, %33
  br i1 %34, label %35, label %43

35:                                               ; preds = %31
  %36 = load ptr, ptr %11, align 8, !tbaa !68
  %37 = load i32, ptr %17, align 4, !tbaa !18
  %38 = sext i32 %37 to i64
  %39 = getelementptr inbounds i16, ptr %36, i64 %38
  %40 = load i16, ptr %39, align 2, !tbaa !73
  %41 = zext i16 %40 to i32
  %42 = icmp ne i32 %41, 47
  br label %43

43:                                               ; preds = %35, %31
  %44 = phi i1 [ false, %31 ], [ %42, %35 ]
  br i1 %44, label %45, label %49

45:                                               ; preds = %43
  br label %46

46:                                               ; preds = %45
  %47 = load i32, ptr %17, align 4, !tbaa !18
  %48 = add nsw i32 %47, 1
  store i32 %48, ptr %17, align 4, !tbaa !18
  br label %31, !llvm.loop !75

49:                                               ; preds = %43
  %50 = load i32, ptr %10, align 4, !tbaa !18
  %51 = call i32 @res_getPublicType_77(i32 noundef %50)
  %52 = icmp eq i32 %51, 3
  br i1 %52, label %53, label %59

53:                                               ; preds = %49
  %54 = load i32, ptr %17, align 4, !tbaa !18
  %55 = icmp eq i32 %54, 0
  br i1 %55, label %56, label %57

56:                                               ; preds = %53
  store i32 1, ptr %18, align 4
  br label %97

57:                                               ; preds = %53
  %58 = load i32, ptr %17, align 4, !tbaa !18
  store i32 %58, ptr %12, align 4, !tbaa !18
  br label %70

59:                                               ; preds = %49
  %60 = load i32, ptr %17, align 4, !tbaa !18
  %61 = load i32, ptr %12, align 4, !tbaa !18
  %62 = icmp ne i32 %60, %61
  br i1 %62, label %63, label %69

63:                                               ; preds = %59
  %64 = load ptr, ptr @stderr, align 8, !tbaa !26
  %65 = load ptr, ptr %9, align 8, !tbaa !31
  %66 = load i32, ptr %10, align 4, !tbaa !18
  %67 = call i32 (ptr, ptr, ...) @fprintf(ptr noundef %64, ptr noundef @.str.14, ptr noundef %65, i32 noundef %66) #11
  %68 = load ptr, ptr %16, align 8, !tbaa !10
  store i32 16, ptr %68, align 4, !tbaa !11
  store i32 1, ptr %18, align 4
  br label %97

69:                                               ; preds = %59
  br label %70

70:                                               ; preds = %69, %57
  call void @llvm.lifetime.start.p0(i64 48, ptr %19) #11
  %71 = load i32, ptr %12, align 4, !tbaa !18
  %72 = icmp sge i32 %71, 48
  br i1 %72, label %73, label %81

73:                                               ; preds = %70
  %74 = load ptr, ptr @stderr, align 8, !tbaa !26
  %75 = load ptr, ptr %9, align 8, !tbaa !31
  %76 = load i32, ptr %10, align 4, !tbaa !18
  %77 = load i32, ptr %12, align 4, !tbaa !18
  %78 = sext i32 %77 to i64
  %79 = call i32 (ptr, ptr, ...) @fprintf(ptr noundef %74, ptr noundef @.str.15, ptr noundef %75, i32 noundef %76, i64 noundef %78) #11
  %80 = load ptr, ptr %16, align 8, !tbaa !10
  store i32 15, ptr %80, align 4, !tbaa !11
  store i32 1, ptr %18, align 4
  br label %96

81:                                               ; preds = %70
  %82 = load ptr, ptr %11, align 8, !tbaa !68
  %83 = getelementptr inbounds [48 x i8], ptr %19, i64 0, i64 0
  %84 = load i32, ptr %12, align 4, !tbaa !18
  call void @u_UCharsToChars_77(ptr noundef %82, ptr noundef %83, i32 noundef %84)
  %85 = load i32, ptr %12, align 4, !tbaa !18
  %86 = sext i32 %85 to i64
  %87 = getelementptr inbounds [48 x i8], ptr %19, i64 0, i64 %86
  store i8 0, ptr %87, align 1, !tbaa !38
  %88 = load ptr, ptr %9, align 8, !tbaa !31
  %89 = getelementptr inbounds [48 x i8], ptr %19, i64 0, i64 0
  %90 = load i8, ptr %13, align 1, !tbaa !38
  %91 = icmp ne i8 %90, 0
  %92 = select i1 %91, ptr @.str.4, ptr @.str.16
  %93 = load ptr, ptr %14, align 8, !tbaa !10
  %94 = load ptr, ptr %15, align 8, !tbaa !10
  %95 = load ptr, ptr %16, align 8, !tbaa !10
  call void @_ZN6icu_77L13checkIDSuffixEPKcS1_iS1_PFvPvS1_S1_ES2_P10UErrorCode(ptr noundef %88, ptr noundef %89, i32 noundef -1, ptr noundef %92, ptr noundef %93, ptr noundef %94, ptr noundef %95)
  store i32 0, ptr %18, align 4
  br label %96

96:                                               ; preds = %81, %73
  call void @llvm.lifetime.end.p0(i64 48, ptr %19) #11
  br label %97

97:                                               ; preds = %96, %63, %56, %24
  call void @llvm.lifetime.end.p0(i64 4, ptr %17) #11
  %98 = load i32, ptr %18, align 4
  switch i32 %98, label %100 [
    i32 0, label %99
    i32 1, label %99
  ]

99:                                               ; preds = %97, %97
  ret void

100:                                              ; preds = %97
  unreachable
}