; Function Attrs: mustprogress uwtable
define internal fastcc void @_ZN6icu_77L10checkAliasEPKcjPKDsiaPFvPvS1_S1_ES4_P10UErrorCode(ptr noundef %0, i32 noundef %1, ptr noundef %2, i32 noundef %3, i8 noundef signext range(i8 0, 2) %4, ptr noundef readonly captures(none) %5, ptr noundef %6, ptr noundef nonnull captures(none) %7) unnamed_addr #0 {
  %9 = alloca [200 x i8], align 16
  %10 = alloca [48 x i8], align 16
  %11 = tail call signext i8 @uprv_isInvariantUString_77(ptr noundef %2, i32 noundef %3)
  %.not = icmp eq i8 %11, 0
  br i1 %.not, label %13, label %.preheader

.preheader:                                       ; preds = %8
  %12 = icmp sgt i32 %3, 0
  br i1 %12, label %.lr.ph.preheader, label %.critedge.thread

.lr.ph.preheader:                                 ; preds = %.preheader
  %wide.trip.count = zext nneg i32 %3 to i64
  br label %.lr.ph

13:                                               ; preds = %8
  %14 = load ptr, ptr @stderr, align 8, !tbaa !20
  %15 = tail call i32 (ptr, ptr, ...) @fprintf(ptr noundef %14, ptr noundef nonnull @.str.13, ptr noundef %0, i32 noundef %1) #13
  store i32 10, ptr %7, align 4, !tbaa !3
  br label %.thread

.lr.ph:                                           ; preds = %.lr.ph.preheader, %18
  %indvars.iv = phi i64 [ 0, %.lr.ph.preheader ], [ %indvars.iv.next, %18 ]
  %16 = getelementptr inbounds nuw i16, ptr %2, i64 %indvars.iv
  %17 = load i16, ptr %16, align 2, !tbaa !49
  %.not32 = icmp eq i16 %17, 47
  br i1 %.not32, label %.critedge.split.loop.exit, label %18

18:                                               ; preds = %.lr.ph
  %indvars.iv.next = add nuw nsw i64 %indvars.iv, 1
  %exitcond.not = icmp eq i64 %indvars.iv.next, %wide.trip.count
  br i1 %exitcond.not, label %.critedge, label %.lr.ph, !llvm.loop !51

.critedge.split.loop.exit:                        ; preds = %.lr.ph
  %19 = trunc nuw nsw i64 %indvars.iv to i32
  br label %.critedge

.critedge:                                        ; preds = %18, %.critedge.split.loop.exit
  %.0.lcssa = phi i32 [ %19, %.critedge.split.loop.exit ], [ %3, %18 ]
  %20 = tail call i32 @res_getPublicType_77(i32 noundef %1)
  %21 = icmp eq i32 %20, 3
  br i1 %21, label %24, label %26

.critedge.thread:                                 ; preds = %.preheader
  %22 = tail call i32 @res_getPublicType_77(i32 noundef %1)
  %23 = icmp eq i32 %22, 3
  br i1 %23, label %.thread, label %26

24:                                               ; preds = %.critedge
  %25 = icmp eq i32 %.0.lcssa, 0
  br i1 %25, label %.thread, label %30

26:                                               ; preds = %.critedge.thread, %.critedge
  %.0.lcssa41 = phi i32 [ 0, %.critedge.thread ], [ %.0.lcssa, %.critedge ]
  %.not33 = icmp eq i32 %.0.lcssa41, %3
  br i1 %.not33, label %30, label %27

27:                                               ; preds = %26
  %28 = load ptr, ptr @stderr, align 8, !tbaa !20
  %29 = tail call i32 (ptr, ptr, ...) @fprintf(ptr noundef %28, ptr noundef nonnull @.str.14, ptr noundef %0, i32 noundef %1) #13
  store i32 16, ptr %7, align 4, !tbaa !3
  br label %.thread

30:                                               ; preds = %24, %26
  %.030 = phi i32 [ %3, %26 ], [ %.0.lcssa, %24 ]
  call void @llvm.lifetime.start.p0(i64 48, ptr nonnull %10) #11
  %31 = icmp sgt i32 %.030, 47
  br i1 %31, label %32, label %36

32:                                               ; preds = %30
  %33 = load ptr, ptr @stderr, align 8, !tbaa !20
  %34 = zext nneg i32 %.030 to i64
  %35 = tail call i32 (ptr, ptr, ...) @fprintf(ptr noundef %33, ptr noundef nonnull @.str.15, ptr noundef %0, i32 noundef %1, i64 noundef %34) #13
  store i32 15, ptr %7, align 4, !tbaa !3
  br label %62

36:                                               ; preds = %30
  call void @u_UCharsToChars_77(ptr noundef %2, ptr noundef nonnull %10, i32 noundef %.030)
  %37 = sext i32 %.030 to i64
  %38 = getelementptr inbounds [48 x i8], ptr %10, i64 0, i64 %37
  store i8 0, ptr %38, align 1, !tbaa !26
  %.not34 = icmp eq i8 %4, 0
  call void @llvm.lifetime.start.p0(i64 200, ptr nonnull %9) #11
  %39 = call noundef ptr @strrchr(ptr noundef nonnull dereferenceable(1) %0, i32 noundef 47) #16
  %.not.i.i = icmp eq ptr %39, null
  %40 = getelementptr inbounds nuw i8, ptr %39, i64 1
  %.028.i.i = select i1 %.not.i.i, ptr %0, ptr %40
  %41 = ptrtoint ptr %.028.i.i to i64
  %42 = ptrtoint ptr %0 to i64
  %43 = sub i64 %41, %42
  %44 = trunc i64 %43 to i32
  %45 = call i64 @strlen(ptr noundef nonnull readonly dereferenceable(1) %10) #16
  %46 = trunc i64 %45 to i32
  %47 = select i1 %.not34, i64 0, i64 4
  %48 = trunc nuw nsw i64 %47 to i32
  %49 = add i32 %46, %48
  %50 = add i32 %49, %44
  %51 = icmp sgt i32 %50, 199
  br i1 %51, label %_ZN6icu_77L14makeTargetNameEPKcS1_iS1_PciP10UErrorCode.exit.thread.i, label %_ZN6icu_77L14makeTargetNameEPKcS1_iS1_PciP10UErrorCode.exit.i

_ZN6icu_77L14makeTargetNameEPKcS1_iS1_PciP10UErrorCode.exit.thread.i: ; preds = %36
  %52 = load ptr, ptr @stderr, align 8, !tbaa !20
  %53 = zext nneg i32 %50 to i64
  %54 = call i32 (ptr, ptr, ...) @fprintf(ptr noundef %52, ptr noundef nonnull @.str.7, ptr noundef nonnull %0, i64 noundef %53) #13
  store i32 15, ptr %7, align 4, !tbaa !3
  br label %_ZN6icu_77L13checkIDSuffixEPKcS1_iS1_PFvPvS1_S1_ES2_P10UErrorCode.exit

_ZN6icu_77L14makeTargetNameEPKcS1_iS1_PciP10UErrorCode.exit.i: ; preds = %36
  %55 = select i1 %.not34, ptr @.str.16, ptr @.str.4
  %sext.i.i = shl i64 %43, 32
  %56 = ashr exact i64 %sext.i.i, 32
  call void @llvm.memcpy.p0.p0.i64(ptr nonnull align 16 %9, ptr nonnull align 1 %0, i64 %56, i1 false)
  %57 = getelementptr inbounds i8, ptr %9, i64 %56
  %sext = shl i64 %45, 32
  %58 = ashr exact i64 %sext, 32
  call void @llvm.memcpy.p0.p0.i64(ptr nonnull align 1 %57, ptr nonnull readonly align 16 %10, i64 %58, i1 false)
  %59 = getelementptr inbounds i8, ptr %57, i64 %58
  %sext32.i.i = or disjoint i64 %47, 1
  call void @llvm.memcpy.p0.p0.i64(ptr noundef nonnull align 1 dereferenceable(1) %59, ptr noundef nonnull readonly align 1 dereferenceable(1) %55, i64 %sext32.i.i, i1 false)
  %.pre.i = load i32, ptr %7, align 4, !tbaa !3
  %60 = icmp sgt i32 %.pre.i, 0
  br i1 %60, label %_ZN6icu_77L13checkIDSuffixEPKcS1_iS1_PFvPvS1_S1_ES2_P10UErrorCode.exit, label %61

61:                                               ; preds = %_ZN6icu_77L14makeTargetNameEPKcS1_iS1_PciP10UErrorCode.exit.i
  call void %5(ptr noundef %6, ptr noundef nonnull %0, ptr noundef nonnull %9)
  br label %_ZN6icu_77L13checkIDSuffixEPKcS1_iS1_PFvPvS1_S1_ES2_P10UErrorCode.exit

_ZN6icu_77L13checkIDSuffixEPKcS1_iS1_PFvPvS1_S1_ES2_P10UErrorCode.exit: ; preds = %_ZN6icu_77L14makeTargetNameEPKcS1_iS1_PciP10UErrorCode.exit.thread.i, %_ZN6icu_77L14makeTargetNameEPKcS1_iS1_PciP10UErrorCode.exit.i, %61
  call void @llvm.lifetime.end.p0(i64 200, ptr nonnull %9) #11
  br label %62

62:                                               ; preds = %_ZN6icu_77L13checkIDSuffixEPKcS1_iS1_PFvPvS1_S1_ES2_P10UErrorCode.exit, %32
  call void @llvm.lifetime.end.p0(i64 48, ptr nonnull %10) #11
  br label %.thread

.thread:                                          ; preds = %.critedge.thread, %24, %62, %27, %13
  ret void
}